target datalayout = "e-m:e-p270:32:32-p271:32:32-p272:64:64-i64:64-i128:128-f80:128-n8:16:32:64-S128"
target triple = "x86_64-pc-linux-gnu"

%struct._asn1_ctx_t = type { i32, i32, i8, ptr, ptr, ptr, ptr, ptr, %struct.anon, %struct.anon.2, %struct.anon.3, ptr }
%struct.anon = type { i32, i8, i8, i8, ptr, ptr, i32, i32, ptr, ptr, ptr, %union.anon }
%union.anon = type { %struct.anon.0 }
%struct.anon.0 = type { ptr }
%struct.anon.2 = type { ptr, ptr, ptr }
%struct.anon.3 = type { i32, i8, ptr, i32, i32, ptr, ptr, ptr, %union.anon.4 }
%union.anon.4 = type { %struct.anon.5 }
%struct.anon.5 = type { ptr }
%struct.mms_actx_private_data_t = type { i32, i32, i32, i32, i32, i16, ptr, i32, i32, i32, ptr, ptr, i32 }
%struct._packet_info = type { ptr, ptr, i32, i32, %struct.nstime_t, %struct.nstime_t, %struct.nstime_t, i8, ptr, ptr, ptr, ptr, %struct._address, %struct._address, %struct._address, %struct._address, %struct._address, %struct._address, i32, ptr, i8, [3 x i8], %struct.anon.7, i32, i32, i32, i32, ptr, i8, ptr, ptr, i16, i16, i32, i32, i16, i32, i32, ptr, ptr, ptr, i8, i8, i16, i16, i16, i32, i16, i16, ptr, ptr, ptr, ptr, ptr, i32, i32 }
%struct.nstime_t = type { i64, i32 }
%struct._address = type { i32, i32, ptr, ptr }
%struct.anon.7 = type { i8, [3 x i8] }
%struct._mms_transaction_t = type { i32, i32, %struct.nstime_t, i32, i32 }

@hf_mms_vmd_specific = internal global i32 0, align 4
@hf_mms_domainId = internal global i32 0, align 4
@hf_mms_objectName_domain_specific_itemId = internal global i32 0, align 4
@hf_mms_listOfIdentifier_item = internal global i32 0, align 4
@.str.1492 = private unnamed_addr constant [10 x i8] c"$ctlModel\00", align 1
@.str.1493 = private unnamed_addr constant [3 x i8] c"$q\00", align 1
@.str.1494 = private unnamed_addr constant [6 x i8] c"$Oper\00", align 1
@.str.1495 = private unnamed_addr constant [12 x i8] c"$Oper$Check\00", align 1
@.str.1496 = private unnamed_addr constant [12 x i8] c"$SBOw$Check\00", align 1
@.str.1497 = private unnamed_addr constant [7 x i8] c"$orCat\00", align 1
@.str.1498 = private unnamed_addr constant [10 x i8] c"Beh$stVal\00", align 1
@.str.1499 = private unnamed_addr constant [10 x i8] c"Mod$stVal\00", align 1
@.str.1500 = private unnamed_addr constant [13 x i8] c"Health$stVal\00", align 1
@.str.1501 = private unnamed_addr constant [5 x i8] c"$BR$\00", align 1
@.str.1502 = private unnamed_addr constant [5 x i8] c"$RP$\00", align 1
@.str.1503 = private unnamed_addr constant [6 x i8] c"$SBOw\00", align 1
@.str.1504 = private unnamed_addr constant [4 x i8] c"RPT\00", align 1

; Function Attrs: null_pointer_is_valid sspstrong uwtable
define internal i32 @dissect_mms_Identifier(i1 noundef zeroext %0, ptr noundef %1, i32 noundef %2, ptr noundef %3, ptr noundef %4, i32 noundef %5) #0 {
  %7 = alloca i8, align 1
  %8 = alloca ptr, align 8
  %9 = alloca i32, align 4
  %10 = alloca ptr, align 8
  %11 = alloca ptr, align 8
  %12 = alloca i32, align 4
  %13 = alloca ptr, align 8
  %14 = alloca ptr, align 8
  %15 = alloca ptr, align 8
  %16 = zext i1 %0 to i8
  store i8 %16, ptr %7, align 1
  store ptr %1, ptr %8, align 8
  store i32 %2, ptr %9, align 4
  store ptr %3, ptr %10, align 8
  store ptr %4, ptr %11, align 8
  store i32 %5, ptr %12, align 4
  call void @llvm.lifetime.start.p0(i64 8, ptr %13) #8
  store ptr null, ptr %13, align 8
  call void @llvm.lifetime.start.p0(i64 8, ptr %14) #8
  %17 = load ptr, ptr %10, align 8
  %18 = getelementptr inbounds nuw %struct._asn1_ctx_t, ptr %17, i32 0, i32 7
  %19 = load ptr, ptr %18, align 8
  store ptr %19, ptr %14, align 8
  %20 = load i8, ptr %7, align 1, !range !6, !noundef !7
  %21 = trunc i8 %20 to i1
  %22 = load ptr, ptr %10, align 8
  %23 = load ptr, ptr %11, align 8
  %24 = load ptr, ptr %8, align 8
  %25 = load i32, ptr %9, align 4
  %26 = load i32, ptr %12, align 4
  %27 = call i32 @dissect_ber_restricted_string(i1 noundef zeroext %21, i32 noundef 26, ptr noundef %22, ptr noundef %23, ptr noundef %24, i32 noundef %25, i32 noundef %26, ptr noundef %13)
  store i32 %27, ptr %9, align 4
  %28 = load ptr, ptr %13, align 8
  %29 = icmp ne ptr %28, null
  br i1 %29, label %30, label %231

30:                                               ; preds = %6
  %31 = load i32, ptr %12, align 4
  %32 = load i32, ptr @hf_mms_domainId, align 4
  %33 = icmp eq i32 %31, %32
  br i1 %33, label %34, label %37

34:                                               ; preds = %30
  %35 = load ptr, ptr %10, align 8
  %36 = load ptr, ptr %13, align 8
  call void @private_data_add_moreCinfo_id(ptr noundef %35, ptr noundef %36)
  br label %37

37:                                               ; preds = %34, %30
  %38 = load ptr, ptr %14, align 8
  %39 = icmp ne ptr %38, null
  br i1 %39, label %40, label %206

40:                                               ; preds = %37
  %41 = load i32, ptr %12, align 4
  %42 = load i32, ptr @hf_mms_objectName_domain_specific_itemId, align 4
  %43 = icmp eq i32 %41, %42
  br i1 %43, label %48, label %44

44:                                               ; preds = %40
  %45 = load i32, ptr %12, align 4
  %46 = load i32, ptr @hf_mms_listOfIdentifier_item, align 4
  %47 = icmp eq i32 %45, %46
  br i1 %47, label %48, label %206

48:                                               ; preds = %44, %40
  %49 = load ptr, ptr %10, align 8
  %50 = load ptr, ptr %13, align 8
  call void @private_data_add_moreCinfo_id(ptr noundef %49, ptr noundef %50)
  %51 = load ptr, ptr %14, align 8
  %52 = getelementptr inbounds nuw %struct.mms_actx_private_data_t, ptr %51, i32 0, i32 10
  %53 = load ptr, ptr %52, align 8
  %54 = icmp ne ptr %53, null
  br i1 %54, label %55, label %205

55:                                               ; preds = %48
  %56 = load ptr, ptr %13, align 8
  %57 = icmp ne ptr %56, null
  br i1 %57, label %58, label %205

58:                                               ; preds = %55
  %59 = load ptr, ptr %10, align 8
  %60 = getelementptr inbounds nuw %struct._asn1_ctx_t, ptr %59, i32 0, i32 3
  %61 = load ptr, ptr %60, align 8
  %62 = getelementptr inbounds nuw %struct._packet_info, ptr %61, i32 0, i32 51
  %63 = load ptr, ptr %62, align 8
  %64 = load ptr, ptr %13, align 8
  %65 = load ptr, ptr %13, align 8
  %66 = call i32 @tvb_reported_length(ptr noundef %65)
  %67 = call ptr @tvb_get_string_enc(ptr noundef %63, ptr noundef %64, i32 noundef 0, i32 noundef %66, i32 noundef 0)
  %68 = load ptr, ptr %14, align 8
  %69 = getelementptr inbounds nuw %struct.mms_actx_private_data_t, ptr %68, i32 0, i32 11
  store ptr %67, ptr %69, align 8
  %70 = load ptr, ptr %14, align 8
  %71 = getelementptr inbounds nuw %struct.mms_actx_private_data_t, ptr %70, i32 0, i32 11
  %72 = load ptr, ptr %71, align 8
  %73 = call i32 @g_str_has_suffix(ptr noundef %72, ptr noundef @.str.1492)
  %74 = icmp ne i32 %73, 0
  br i1 %74, label %75, label %80

75:                                               ; preds = %58
  %76 = load ptr, ptr %14, align 8
  %77 = getelementptr inbounds nuw %struct.mms_actx_private_data_t, ptr %76, i32 0, i32 10
  %78 = load ptr, ptr %77, align 8
  %79 = getelementptr inbounds nuw %struct._mms_transaction_t, ptr %78, i32 0, i32 3
  store i32 1, ptr %79, align 8
  br label %204

80:                                               ; preds = %58
  %81 = load ptr, ptr %14, align 8
  %82 = getelementptr inbounds nuw %struct.mms_actx_private_data_t, ptr %81, i32 0, i32 11
  %83 = load ptr, ptr %82, align 8
  %84 = call i32 @g_str_has_suffix(ptr noundef %83, ptr noundef @.str.1493)
  %85 = icmp ne i32 %84, 0
  br i1 %85, label %86, label %91

86:                                               ; preds = %80
  %87 = load ptr, ptr %14, align 8
  %88 = getelementptr inbounds nuw %struct.mms_actx_private_data_t, ptr %87, i32 0, i32 10
  %89 = load ptr, ptr %88, align 8
  %90 = getelementptr inbounds nuw %struct._mms_transaction_t, ptr %89, i32 0, i32 3
  store i32 2, ptr %90, align 8
  br label %203

91:                                               ; preds = %80
  %92 = load ptr, ptr %14, align 8
  %93 = getelementptr inbounds nuw %struct.mms_actx_private_data_t, ptr %92, i32 0, i32 11
  %94 = load ptr, ptr %93, align 8
  %95 = call i32 @g_str_has_suffix(ptr noundef %94, ptr noundef @.str.1494)
  %96 = icmp ne i32 %95, 0
  br i1 %96, label %97, label %102

97:                                               ; preds = %91
  %98 = load ptr, ptr %14, align 8
  %99 = getelementptr inbounds nuw %struct.mms_actx_private_data_t, ptr %98, i32 0, i32 10
  %100 = load ptr, ptr %99, align 8
  %101 = getelementptr inbounds nuw %struct._mms_transaction_t, ptr %100, i32 0, i32 3
  store i32 3, ptr %101, align 8
  br label %202

102:                                              ; preds = %91
  %103 = load ptr, ptr %14, align 8
  %104 = getelementptr inbounds nuw %struct.mms_actx_private_data_t, ptr %103, i32 0, i32 11
  %105 = load ptr, ptr %104, align 8
  %106 = call i32 @g_str_has_suffix(ptr noundef %105, ptr noundef @.str.1495)
  %107 = icmp ne i32 %106, 0
  br i1 %107, label %114, label %108

108:                                              ; preds = %102
  %109 = load ptr, ptr %14, align 8
  %110 = getelementptr inbounds nuw %struct.mms_actx_private_data_t, ptr %109, i32 0, i32 11
  %111 = load ptr, ptr %110, align 8
  %112 = call i32 @g_str_has_suffix(ptr noundef %111, ptr noundef @.str.1496)
  %113 = icmp ne i32 %112, 0
  br i1 %113, label %114, label %119

114:                                              ; preds = %108, %102
  %115 = load ptr, ptr %14, align 8
  %116 = getelementptr inbounds nuw %struct.mms_actx_private_data_t, ptr %115, i32 0, i32 10
  %117 = load ptr, ptr %116, align 8
  %118 = getelementptr inbounds nuw %struct._mms_transaction_t, ptr %117, i32 0, i32 3
  store i32 4, ptr %118, align 8
  br label %201

119:                                              ; preds = %108
  %120 = load ptr, ptr %14, align 8
  %121 = getelementptr inbounds nuw %struct.mms_actx_private_data_t, ptr %120, i32 0, i32 11
  %122 = load ptr, ptr %121, align 8
  %123 = call i32 @g_str_has_suffix(ptr noundef %122, ptr noundef @.str.1497)
  %124 = icmp ne i32 %123, 0
  br i1 %124, label %125, label %130

125:                                              ; preds = %119
  %126 = load ptr, ptr %14, align 8
  %127 = getelementptr inbounds nuw %struct.mms_actx_private_data_t, ptr %126, i32 0, i32 10
  %128 = load ptr, ptr %127, align 8
  %129 = getelementptr inbounds nuw %struct._mms_transaction_t, ptr %128, i32 0, i32 3
  store i32 5, ptr %129, align 8
  br label %200

130:                                              ; preds = %119
  %131 = load ptr, ptr %14, align 8
  %132 = getelementptr inbounds nuw %struct.mms_actx_private_data_t, ptr %131, i32 0, i32 11
  %133 = load ptr, ptr %132, align 8
  %134 = call i32 @g_str_has_suffix(ptr noundef %133, ptr noundef @.str.1498)
  %135 = icmp ne i32 %134, 0
  br i1 %135, label %136, label %141

136:                                              ; preds = %130
  %137 = load ptr, ptr %14, align 8
  %138 = getelementptr inbounds nuw %struct.mms_actx_private_data_t, ptr %137, i32 0, i32 10
  %139 = load ptr, ptr %138, align 8
  %140 = getelementptr inbounds nuw %struct._mms_transaction_t, ptr %139, i32 0, i32 3
  store i32 6, ptr %140, align 8
  br label %199

141:                                              ; preds = %130
  %142 = load ptr, ptr %14, align 8
  %143 = getelementptr inbounds nuw %struct.mms_actx_private_data_t, ptr %142, i32 0, i32 11
  %144 = load ptr, ptr %143, align 8
  %145 = call i32 @g_str_has_suffix(ptr noundef %144, ptr noundef @.str.1499)
  %146 = icmp ne i32 %145, 0
  br i1 %146, label %147, label %152

147:                                              ; preds = %141
  %148 = load ptr, ptr %14, align 8
  %149 = getelementptr inbounds nuw %struct.mms_actx_private_data_t, ptr %148, i32 0, i32 10
  %150 = load ptr, ptr %149, align 8
  %151 = getelementptr inbounds nuw %struct._mms_transaction_t, ptr %150, i32 0, i32 3
  store i32 7, ptr %151, align 8
  br label %198

152:                                              ; preds = %141
  %153 = load ptr, ptr %14, align 8
  %154 = getelementptr inbounds nuw %struct.mms_actx_private_data_t, ptr %153, i32 0, i32 11
  %155 = load ptr, ptr %154, align 8
  %156 = call i32 @g_str_has_suffix(ptr noundef %155, ptr noundef @.str.1500)
  %157 = icmp ne i32 %156, 0
  br i1 %157, label %158, label %163

158:                                              ; preds = %152
  %159 = load ptr, ptr %14, align 8
  %160 = getelementptr inbounds nuw %struct.mms_actx_private_data_t, ptr %159, i32 0, i32 10
  %161 = load ptr, ptr %160, align 8
  %162 = getelementptr inbounds nuw %struct._mms_transaction_t, ptr %161, i32 0, i32 3
  store i32 8, ptr %162, align 8
  br label %197

163:                                              ; preds = %152
  %164 = load ptr, ptr %14, align 8
  %165 = getelementptr inbounds nuw %struct.mms_actx_private_data_t, ptr %164, i32 0, i32 11
  %166 = load ptr, ptr %165, align 8
  %167 = call ptr @g_strrstr(ptr noundef %166, ptr noundef @.str.1501)
  %168 = icmp ne ptr %167, null
  br i1 %168, label %175, label %169

169:                                              ; preds = %163
  %170 = load ptr, ptr %14, align 8
  %171 = getelementptr inbounds nuw %struct.mms_actx_private_data_t, ptr %170, i32 0, i32 11
  %172 = load ptr, ptr %171, align 8
  %173 = call ptr @g_strrstr(ptr noundef %172, ptr noundef @.str.1502)
  %174 = icmp ne ptr %173, null
  br i1 %174, label %175, label %180

175:                                              ; preds = %169, %163
  %176 = load ptr, ptr %14, align 8
  %177 = getelementptr inbounds nuw %struct.mms_actx_private_data_t, ptr %176, i32 0, i32 10
  %178 = load ptr, ptr %177, align 8
  %179 = getelementptr inbounds nuw %struct._mms_transaction_t, ptr %178, i32 0, i32 3
  store i32 9, ptr %179, align 8
  br label %196

180:                                              ; preds = %169
  %181 = load ptr, ptr %14, align 8
  %182 = getelementptr inbounds nuw %struct.mms_actx_private_data_t, ptr %181, i32 0, i32 11
  %183 = load ptr, ptr %182, align 8
  %184 = call i32 @g_str_has_suffix(ptr noundef %183, ptr noundef @.str.1503)
  %185 = icmp ne i32 %184, 0
  br i1 %185, label %186, label %195

186:                                              ; preds = %180
  %187 = load ptr, ptr %14, align 8
  %188 = getelementptr inbounds nuw %struct.mms_actx_private_data_t, ptr %187, i32 0, i32 10
  %189 = load ptr, ptr %188, align 8
  %190 = getelementptr inbounds nuw %struct._mms_transaction_t, ptr %189, i32 0, i32 3
  store i32 10, ptr %190, align 8
  %191 = load ptr, ptr %14, align 8
  %192 = getelementptr inbounds nuw %struct.mms_actx_private_data_t, ptr %191, i32 0, i32 10
  %193 = load ptr, ptr %192, align 8
  %194 = getelementptr inbounds nuw %struct._mms_transaction_t, ptr %193, i32 0, i32 4
  store i32 5, ptr %194, align 4
  br label %195

195:                                              ; preds = %186, %180
  br label %196

196:                                              ; preds = %195, %175
  br label %197

197:                                              ; preds = %196, %158
  br label %198

198:                                              ; preds = %197, %147
  br label %199

199:                                              ; preds = %198, %136
  br label %200

200:                                              ; preds = %199, %125
  br label %201

201:                                              ; preds = %200, %114
  br label %202

202:                                              ; preds = %201, %97
  br label %203

203:                                              ; preds = %202, %86
  br label %204

204:                                              ; preds = %203, %75
  br label %205

205:                                              ; preds = %204, %55, %48
  br label %206

206:                                              ; preds = %205, %44, %37
  %207 = load ptr, ptr %14, align 8
  %208 = icmp ne ptr %207, null
  br i1 %208, label %209, label %230

209:                                              ; preds = %206
  %210 = load i32, ptr %12, align 4
  %211 = load i32, ptr @hf_mms_vmd_specific, align 4
  %212 = icmp eq i32 %210, %211
  br i1 %212, label %213, label %230

213:                                              ; preds = %209
  call void @llvm.lifetime.start.p0(i64 8, ptr %15) #8
  %214 = load ptr, ptr %10, align 8
  %215 = getelementptr inbounds nuw %struct._asn1_ctx_t, ptr %214, i32 0, i32 3
  %216 = load ptr, ptr %215, align 8
  %217 = getelementptr inbounds nuw %struct._packet_info, ptr %216, i32 0, i32 51
  %218 = load ptr, ptr %217, align 8
  %219 = load ptr, ptr %13, align 8
  %220 = load ptr, ptr %13, align 8
  %221 = call i32 @tvb_reported_length(ptr noundef %220)
  %222 = call ptr @tvb_get_string_enc(ptr noundef %218, ptr noundef %219, i32 noundef 0, i32 noundef %221, i32 noundef 0)
  store ptr %222, ptr %15, align 8
  %223 = load ptr, ptr %15, align 8
  %224 = call i32 @strcmp(ptr noundef %223, ptr noundef @.str.1504) #10
  %225 = icmp eq i32 %224, 0
  br i1 %225, label %226, label %229

226:                                              ; preds = %213
  %227 = load ptr, ptr %14, align 8
  %228 = getelementptr inbounds nuw %struct.mms_actx_private_data_t, ptr %227, i32 0, i32 2
  store i32 1, ptr %228, align 8
  br label %229

229:                                              ; preds = %226, %213
  call void @llvm.lifetime.end.p0(i64 8, ptr %15) #8
  br label %230

230:                                              ; preds = %229, %209, %206
  br label %231

231:                                              ; preds = %230, %6
  %232 = load i32, ptr %9, align 4
  call void @llvm.lifetime.end.p0(i64 8, ptr %14) #8
  call void @llvm.lifetime.end.p0(i64 8, ptr %13) #8
  ret i32 %232
}