; Function Attrs: null_pointer_is_valid sspstrong uwtable
define internal i32 @dissect_mms_Identifier(i1 noundef zeroext %0, ptr noundef %1, i32 noundef %2, ptr noundef %3, ptr noundef %4, i32 noundef %5) #0 {
  %7 = alloca ptr, align 8
  call void @llvm.lifetime.start.p0(i64 8, ptr nonnull %7) #8
  store ptr null, ptr %7, align 8
  %8 = getelementptr inbounds nuw i8, ptr %3, i64 48
  %9 = load ptr, ptr %8, align 8
  %10 = call i32 @dissect_ber_restricted_string(i1 noundef zeroext %0, i32 noundef 26, ptr noundef %3, ptr noundef %4, ptr noundef %1, i32 noundef %2, i32 noundef %5, ptr noundef nonnull %7)
  %11 = load ptr, ptr %7, align 8
  %.not = icmp eq ptr %11, null
  br i1 %.not, label %.critedge, label %12

12:                                               ; preds = %6
  %13 = load i32, ptr @hf_mms_domainId, align 4
  %14 = icmp eq i32 %5, %13
  br i1 %14, label %15, label %16

15:                                               ; preds = %12
  call fastcc void @private_data_add_moreCinfo_id(ptr noundef %3, ptr noundef nonnull %11)
  br label %16

16:                                               ; preds = %15, %12
  %.not48 = icmp eq ptr %9, null
  br i1 %.not48, label %.critedge, label %17

17:                                               ; preds = %16
  %18 = load i32, ptr @hf_mms_objectName_domain_specific_itemId, align 4
  %19 = icmp eq i32 %5, %18
  %20 = load i32, ptr @hf_mms_listOfIdentifier_item, align 4
  %21 = icmp eq i32 %5, %20
  %or.cond62 = select i1 %19, i1 true, i1 %21
  br i1 %or.cond62, label %22, label %103

22:                                               ; preds = %17
  %23 = load ptr, ptr %7, align 8
  call fastcc void @private_data_add_moreCinfo_id(ptr noundef %3, ptr noundef %23)
  %24 = getelementptr inbounds nuw i8, ptr %9, i64 48
  %25 = load ptr, ptr %24, align 8
  %26 = icmp ne ptr %25, null
  %27 = load ptr, ptr %7, align 8
  %28 = icmp ne ptr %27, null
  %or.cond = select i1 %26, i1 %28, i1 false
  br i1 %or.cond, label %29, label %103

29:                                               ; preds = %22
  %30 = getelementptr inbounds nuw i8, ptr %3, i64 16
  %31 = load ptr, ptr %30, align 8
  %32 = getelementptr inbounds nuw i8, ptr %31, i64 408
  %33 = load ptr, ptr %32, align 8
  %34 = call i32 @tvb_reported_length(ptr noundef nonnull %27)
  %35 = call ptr @tvb_get_string_enc(ptr noundef %33, ptr noundef nonnull %27, i32 noundef 0, i32 noundef %34, i32 noundef 0)
  %36 = getelementptr inbounds nuw i8, ptr %9, i64 56
  store ptr %35, ptr %36, align 8
  %37 = call i32 @g_str_has_suffix(ptr noundef %35, ptr noundef nonnull @.str.1492)
  %.not49 = icmp eq i32 %37, 0
  br i1 %.not49, label %41, label %38

38:                                               ; preds = %29
  %39 = load ptr, ptr %24, align 8
  %40 = getelementptr inbounds nuw i8, ptr %39, i64 24
  store i32 1, ptr %40, align 8
  br label %103

41:                                               ; preds = %29
  %42 = load ptr, ptr %36, align 8
  %43 = call i32 @g_str_has_suffix(ptr noundef %42, ptr noundef nonnull @.str.1493)
  %.not50 = icmp eq i32 %43, 0
  br i1 %.not50, label %47, label %44

44:                                               ; preds = %41
  %45 = load ptr, ptr %24, align 8
  %46 = getelementptr inbounds nuw i8, ptr %45, i64 24
  store i32 2, ptr %46, align 8
  br label %103

47:                                               ; preds = %41
  %48 = load ptr, ptr %36, align 8
  %49 = call i32 @g_str_has_suffix(ptr noundef %48, ptr noundef nonnull @.str.1494)
  %.not51 = icmp eq i32 %49, 0
  br i1 %.not51, label %53, label %50

50:                                               ; preds = %47
  %51 = load ptr, ptr %24, align 8
  %52 = getelementptr inbounds nuw i8, ptr %51, i64 24
  store i32 3, ptr %52, align 8
  br label %103

53:                                               ; preds = %47
  %54 = load ptr, ptr %36, align 8
  %55 = call i32 @g_str_has_suffix(ptr noundef %54, ptr noundef nonnull @.str.1495)
  %.not52 = icmp eq i32 %55, 0
  br i1 %.not52, label %56, label %59

56:                                               ; preds = %53
  %57 = load ptr, ptr %36, align 8
  %58 = call i32 @g_str_has_suffix(ptr noundef %57, ptr noundef nonnull @.str.1496)
  %.not53 = icmp eq i32 %58, 0
  br i1 %.not53, label %62, label %59

59:                                               ; preds = %56, %53
  %60 = load ptr, ptr %24, align 8
  %61 = getelementptr inbounds nuw i8, ptr %60, i64 24
  store i32 4, ptr %61, align 8
  br label %103

62:                                               ; preds = %56
  %63 = load ptr, ptr %36, align 8
  %64 = call i32 @g_str_has_suffix(ptr noundef %63, ptr noundef nonnull @.str.1497)
  %.not54 = icmp eq i32 %64, 0
  br i1 %.not54, label %68, label %65

65:                                               ; preds = %62
  %66 = load ptr, ptr %24, align 8
  %67 = getelementptr inbounds nuw i8, ptr %66, i64 24
  store i32 5, ptr %67, align 8
  br label %103

68:                                               ; preds = %62
  %69 = load ptr, ptr %36, align 8
  %70 = call i32 @g_str_has_suffix(ptr noundef %69, ptr noundef nonnull @.str.1498)
  %.not55 = icmp eq i32 %70, 0
  br i1 %.not55, label %74, label %71

71:                                               ; preds = %68
  %72 = load ptr, ptr %24, align 8
  %73 = getelementptr inbounds nuw i8, ptr %72, i64 24
  store i32 6, ptr %73, align 8
  br label %103

74:                                               ; preds = %68
  %75 = load ptr, ptr %36, align 8
  %76 = call i32 @g_str_has_suffix(ptr noundef %75, ptr noundef nonnull @.str.1499)
  %.not56 = icmp eq i32 %76, 0
  br i1 %.not56, label %80, label %77

77:                                               ; preds = %74
  %78 = load ptr, ptr %24, align 8
  %79 = getelementptr inbounds nuw i8, ptr %78, i64 24
  store i32 7, ptr %79, align 8
  br label %103

80:                                               ; preds = %74
  %81 = load ptr, ptr %36, align 8
  %82 = call i32 @g_str_has_suffix(ptr noundef %81, ptr noundef nonnull @.str.1500)
  %.not57 = icmp eq i32 %82, 0
  br i1 %.not57, label %86, label %83

83:                                               ; preds = %80
  %84 = load ptr, ptr %24, align 8
  %85 = getelementptr inbounds nuw i8, ptr %84, i64 24
  store i32 8, ptr %85, align 8
  br label %103

86:                                               ; preds = %80
  %87 = load ptr, ptr %36, align 8
  %88 = call ptr @g_strrstr(ptr noundef %87, ptr noundef nonnull @.str.1501)
  %.not58 = icmp eq ptr %88, null
  br i1 %.not58, label %89, label %92

89:                                               ; preds = %86
  %90 = load ptr, ptr %36, align 8
  %91 = call ptr @g_strrstr(ptr noundef %90, ptr noundef nonnull @.str.1502)
  %.not59 = icmp eq ptr %91, null
  br i1 %.not59, label %95, label %92

92:                                               ; preds = %89, %86
  %93 = load ptr, ptr %24, align 8
  %94 = getelementptr inbounds nuw i8, ptr %93, i64 24
  store i32 9, ptr %94, align 8
  br label %103

95:                                               ; preds = %89
  %96 = load ptr, ptr %36, align 8
  %97 = call i32 @g_str_has_suffix(ptr noundef %96, ptr noundef nonnull @.str.1503)
  %.not60 = icmp eq i32 %97, 0
  br i1 %.not60, label %103, label %98

98:                                               ; preds = %95
  %99 = load ptr, ptr %24, align 8
  %100 = getelementptr inbounds nuw i8, ptr %99, i64 24
  store i32 10, ptr %100, align 8
  %101 = load ptr, ptr %24, align 8
  %102 = getelementptr inbounds nuw i8, ptr %101, i64 28
  store i32 5, ptr %102, align 4
  br label %103

103:                                              ; preds = %17, %22, %44, %59, %71, %83, %95, %98, %92, %77, %65, %50, %38
  %104 = load i32, ptr @hf_mms_vmd_specific, align 4
  %105 = icmp eq i32 %5, %104
  br i1 %105, label %106, label %.critedge

106:                                              ; preds = %103
  %107 = getelementptr inbounds nuw i8, ptr %3, i64 16
  %108 = load ptr, ptr %107, align 8
  %109 = getelementptr inbounds nuw i8, ptr %108, i64 408
  %110 = load ptr, ptr %109, align 8
  %111 = load ptr, ptr %7, align 8
  %112 = call i32 @tvb_reported_length(ptr noundef %111)
  %113 = call ptr @tvb_get_string_enc(ptr noundef %110, ptr noundef %111, i32 noundef 0, i32 noundef %112, i32 noundef 0)
  %114 = call i32 @strcmp(ptr noundef %113, ptr noundef nonnull dereferenceable(4) @.str.1504) #10
  %115 = icmp eq i32 %114, 0
  br i1 %115, label %116, label %.critedge

116:                                              ; preds = %106
  %117 = getelementptr inbounds nuw i8, ptr %9, i64 8
  store i32 1, ptr %117, align 8
  br label %.critedge

.critedge:                                        ; preds = %16, %106, %116, %103, %6
  call void @llvm.lifetime.end.p0(i64 8, ptr nonnull %7) #8
  ret i32 %10
}